target datalayout = "e-m:e-p270:32:32-p271:32:32-p272:64:64-i64:64-i128:128-f80:128-n8:16:32:64-S128"
target triple = "x86_64-pc-linux-gnu"

%struct.reassembly_table = type { ptr, ptr, ptr, ptr, ptr }
%struct.reassembly_table_functions = type { ptr, ptr, ptr, ptr, ptr, ptr }

@proto_register_smtp.ett = internal global [4 x ptr] [ptr @ett_smtp, ptr @ett_smtp_cmdresp, ptr @ett_smtp_data_fragment, ptr @ett_smtp_data_fragments], align 16
@.str.58 = private unnamed_addr constant [30 x i8] c"Simple Mail Transfer Protocol\00", align 1
@.str.59 = private unnamed_addr constant [5 x i8] c"SMTP\00", align 1
@.str.60 = private unnamed_addr constant [5 x i8] c"smtp\00", align 1
@proto_smtp = internal global i32 0, align 4
@smtp_data_reassembly_table = internal global %struct.reassembly_table zeroinitializer, align 8
@addresses_ports_reassembly_table_functions = external constant %struct.reassembly_table_functions, align 8
@smtp_handle = internal global ptr null, align 8
@.str.61 = private unnamed_addr constant [16 x i8] c"desegment_lines\00", align 1
@.str.62 = private unnamed_addr constant [74 x i8] c"Reassemble SMTP command and response lines spanning multiple TCP segments\00", align 1
@.str.63 = private unnamed_addr constant [223 x i8] c"Whether the SMTP dissector should reassemble command and response lines spanning multiple TCP segments. To use this option, you must also enable \22Allow subdissectors to reassemble TCP streams\22 in the TCP protocol settings.\00", align 1
@smtp_desegment = internal global i8 1, align 1
@.str.64 = private unnamed_addr constant [15 x i8] c"desegment_data\00", align 1
@.str.65 = private unnamed_addr constant [61 x i8] c"Reassemble SMTP DATA commands spanning multiple TCP segments\00", align 1
@.str.66 = private unnamed_addr constant [219 x i8] c"Whether the SMTP dissector should reassemble DATA command and lines spanning multiple TCP segments. To use this option, you must also enable \22Allow subdissectors to reassemble TCP streams\22 in the TCP protocol settings.\00", align 1
@smtp_data_desegment = internal global i8 1, align 1
@.str.67 = private unnamed_addr constant [11 x i8] c"decryption\00", align 1
@.str.68 = private unnamed_addr constant [38 x i8] c"Decode Base64 encoded AUTH parameters\00", align 1
@.str.69 = private unnamed_addr constant [72 x i8] c"Whether the SMTP dissector should decode Base64 encoded AUTH parameters\00", align 1
@smtp_auth_parameter_decoding_enabled = internal global i8 0, align 1
@.str.70 = private unnamed_addr constant [12 x i8] c"credentials\00", align 1
@credentials_tap = internal global i32 0, align 4

; Function Attrs: null_pointer_is_valid sspstrong uwtable
define hidden void @proto_register_smtp() #0 {
  %1 = alloca ptr, align 8
  %2 = alloca ptr, align 8
  call void @llvm.lifetime.start.p0(i64 8, ptr %1) #8
  call void @llvm.lifetime.start.p0(i64 8, ptr %2) #8
  %3 = call i32 @proto_register_protocol(ptr noundef @.str.58, ptr noundef @.str.59, ptr noundef @.str.60)
  store i32 %3, ptr @proto_smtp, align 4
  %4 = load i32, ptr @proto_smtp, align 4
  call void @proto_register_field_array(i32 noundef %4, ptr noundef @proto_register_smtp.hf, i32 noundef 23)
  call void @proto_register_subtree_array(ptr noundef @proto_register_smtp.ett, i32 noundef 4)
  %5 = load i32, ptr @proto_smtp, align 4
  %6 = call ptr @expert_register_protocol(i32 noundef %5)
  store ptr %6, ptr %2, align 8
  %7 = load ptr, ptr %2, align 8
  call void @expert_register_field_array(ptr noundef %7, ptr noundef @proto_register_smtp.ei, i32 noundef 2)
  call void @reassembly_table_register(ptr noundef @smtp_data_reassembly_table, ptr noundef @addresses_ports_reassembly_table_functions)
  %8 = load i32, ptr @proto_smtp, align 4
  %9 = call ptr @register_dissector(ptr noundef @.str.60, ptr noundef @dissect_smtp, i32 noundef %8)
  store ptr %9, ptr @smtp_handle, align 8
  %10 = load i32, ptr @proto_smtp, align 4
  %11 = call ptr @prefs_register_protocol(i32 noundef %10, ptr noundef null)
  store ptr %11, ptr %1, align 8
  %12 = load ptr, ptr %1, align 8
  call void @prefs_register_bool_preference(ptr noundef %12, ptr noundef @.str.61, ptr noundef @.str.62, ptr noundef @.str.63, ptr noundef @smtp_desegment)
  %13 = load ptr, ptr %1, align 8
  call void @prefs_register_bool_preference(ptr noundef %13, ptr noundef @.str.64, ptr noundef @.str.65, ptr noundef @.str.66, ptr noundef @smtp_data_desegment)
  %14 = load ptr, ptr %1, align 8
  call void @prefs_register_bool_preference(ptr noundef %14, ptr noundef @.str.67, ptr noundef @.str.68, ptr noundef @.str.69, ptr noundef @smtp_auth_parameter_decoding_enabled)
  %15 = call i32 @register_tap(ptr noundef @.str.70)
  store i32 %15, ptr @credentials_tap, align 4
  call void @llvm.lifetime.end.p0(i64 8, ptr %2) #8
  call void @llvm.lifetime.end.p0(i64 8, ptr %1) #8
  ret void
}