; Function Attrs: null_pointer_is_valid sspstrong uwtable
define hidden void @proto_register_smtp() local_unnamed_addr #0 {
  %1 = tail call i32 @proto_register_protocol(ptr noundef nonnull @.str.58, ptr noundef nonnull @.str.59, ptr noundef nonnull @.str.60)
  store i32 %1, ptr @proto_smtp, align 4
  tail call void @proto_register_field_array(i32 noundef %1, ptr noundef nonnull @proto_register_smtp.hf, i32 noundef 23)
  tail call void @proto_register_subtree_array(ptr noundef nonnull @proto_register_smtp.ett, i32 noundef 4)
  %2 = load i32, ptr @proto_smtp, align 4
  %3 = tail call ptr @expert_register_protocol(i32 noundef %2)
  tail call void @expert_register_field_array(ptr noundef %3, ptr noundef nonnull @proto_register_smtp.ei, i32 noundef 2)
  tail call void @reassembly_table_register(ptr noundef nonnull @smtp_data_reassembly_table, ptr noundef nonnull @addresses_ports_reassembly_table_functions)
  %4 = load i32, ptr @proto_smtp, align 4
  %5 = tail call ptr @register_dissector(ptr noundef nonnull @.str.60, ptr noundef nonnull @dissect_smtp, i32 noundef %4)
  store ptr %5, ptr @smtp_handle, align 8
  %6 = load i32, ptr @proto_smtp, align 4
  %7 = tail call ptr @prefs_register_protocol(i32 noundef %6, ptr noundef null)
  tail call void @prefs_register_bool_preference(ptr noundef %7, ptr noundef nonnull @.str.61, ptr noundef nonnull @.str.62, ptr noundef nonnull @.str.63, ptr noundef nonnull @smtp_desegment)
  tail call void @prefs_register_bool_preference(ptr noundef %7, ptr noundef nonnull @.str.64, ptr noundef nonnull @.str.65, ptr noundef nonnull @.str.66, ptr noundef nonnull @smtp_data_desegment)
  tail call void @prefs_register_bool_preference(ptr noundef %7, ptr noundef nonnull @.str.67, ptr noundef nonnull @.str.68, ptr noundef nonnull @.str.69, ptr noundef nonnull @smtp_auth_parameter_decoding_enabled)
  %8 = tail call i32 @register_tap(ptr noundef nonnull @.str.70)
  store i32 %8, ptr @credentials_tap, align 4
  ret void
}